target datalayout = "e-m:e-p270:32:32-p271:32:32-p272:64:64-i64:64-i128:128-f80:128-n8:16:32:64-S128"
target triple = "x86_64-pc-linux-gnu"

%class.ciFlags = type <{ i32, i8, i8, [2 x i8] }>
%class.ciInstanceKlass = type { %class.ciKlass.base, ptr, ptr, i8, i8, i8, i32, i8, i8, i8, i8, i8, [3 x i8], %class.ciFlags, ptr, ptr, ptr, ptr, i32, ptr, ptr }
%class.ciKlass.base = type <{ %class.ciType.base, [7 x i8], ptr, i32 }>
%class.ciType.base = type <{ %class.ciMetadata, i8 }>
%class.ciMetadata = type { %class.ciBaseObject.base, ptr }
%class.ciBaseObject.base = type <{ ptr, i32 }>

; Function Attrs: mustprogress nounwind uwtable
define linkonce_odr hidden noundef zeroext i1 @_ZNK7ciFlags8is_finalEv(ptr noundef nonnull align 4 dereferenceable(6) %0) #1 comdat align 2 {
  %2 = alloca ptr, align 8
  store ptr %0, ptr %2, align 8
  %3 = load ptr, ptr %2, align 8
  %4 = getelementptr inbounds %class.ciFlags, ptr %3, i32 0, i32 0
  %5 = load i32, ptr %4, align 4
  %6 = and i32 %5, 16
  %7 = icmp ne i32 %6, 0
  ret i1 %7
}

; Function Attrs: mustprogress nounwind uwtable
define linkonce_odr hidden i64 @_ZN15ciInstanceKlass5flagsEv(ptr noundef nonnull align 8 dereferenceable(144) %0) #1 comdat align 2 {
  %2 = alloca %class.ciFlags, align 4
  %3 = alloca ptr, align 8
  store ptr %0, ptr %3, align 8
  %4 = load ptr, ptr %3, align 8
  %5 = getelementptr inbounds %class.ciInstanceKlass, ptr %4, i32 0, i32 13
  call void @llvm.memcpy.p0.p0.i64(ptr align 4 %2, ptr align 8 %5, i64 8, i1 false)
  %6 = load i64, ptr %2, align 4
  ret i64 %6
}

; Function Attrs: mustprogress nounwind uwtable
define linkonce_odr hidden noundef i32 @_ZN15ciInstanceKlass16nof_implementorsEv(ptr noundef nonnull align 8 dereferenceable(144) %0) #1 comdat align 2 {
  %2 = alloca i32, align 4
  %3 = alloca ptr, align 8
  %4 = alloca ptr, align 8
  store ptr %0, ptr %3, align 8
  %5 = load ptr, ptr %3, align 8
  %6 = call noundef ptr @_ZN15ciInstanceKlass11implementorEv(ptr noundef nonnull align 8 dereferenceable(144) %5)
  store ptr %6, ptr %4, align 8
  %7 = load ptr, ptr %4, align 8
  %8 = icmp eq ptr %7, null
  br i1 %8, label %9, label %10

9:                                                ; preds = %1
  store i32 0, ptr %2, align 4
  br label %15

10:                                               ; preds = %1
  %11 = load ptr, ptr %4, align 8
  %12 = icmp ne ptr %11, %5
  br i1 %12, label %13, label %14

13:                                               ; preds = %10
  store i32 1, ptr %2, align 4
  br label %15

14:                                               ; preds = %10
  store i32 2, ptr %2, align 4
  br label %15

15:                                               ; preds = %14, %13, %9
  %16 = load i32, ptr %2, align 4
  ret i32 %16
}

; Function Attrs: mustprogress nounwind uwtable
define linkonce_odr hidden noundef zeroext i1 @_ZN15ciInstanceKlass12has_subklassEv(ptr noundef nonnull align 8 dereferenceable(144) %0) #1 comdat align 2 {
  %2 = alloca i1, align 1
  %3 = alloca ptr, align 8
  %4 = alloca %class.ciFlags, align 4
  store ptr %0, ptr %3, align 8
  %5 = load ptr, ptr %3, align 8
  %6 = getelementptr inbounds %class.ciInstanceKlass, ptr %5, i32 0, i32 6
  %7 = load i32, ptr %6, align 4
  %8 = icmp eq i32 %7, 2
  br i1 %8, label %9, label %10

9:                                                ; preds = %1
  store i1 true, ptr %2, align 1
  br label %16

10:                                               ; preds = %1
  %11 = call i64 @_ZN15ciInstanceKlass5flagsEv(ptr noundef nonnull align 8 dereferenceable(144) %5)
  store i64 %11, ptr %4, align 4
  %12 = call noundef zeroext i1 @_ZNK7ciFlags8is_finalEv(ptr noundef nonnull align 4 dereferenceable(6) %4)
  br i1 %12, label %13, label %14

13:                                               ; preds = %10
  store i1 false, ptr %2, align 1
  br label %16

14:                                               ; preds = %10
  %15 = call noundef zeroext i1 @_ZN15ciInstanceKlass27compute_shared_has_subklassEv(ptr noundef nonnull align 8 dereferenceable(144) %5)
  store i1 %15, ptr %2, align 1
  br label %16

16:                                               ; preds = %14, %13, %9
  %17 = load i1, ptr %2, align 1
  ret i1 %17
}

; Function Attrs: mustprogress nounwind uwtable
define linkonce_odr hidden noundef zeroext i1 @_ZN15ciInstanceKlass8is_finalEv(ptr noundef nonnull align 8 dereferenceable(144) %0) #1 comdat align 2 {
  %2 = alloca ptr, align 8
  %3 = alloca %class.ciFlags, align 4
  store ptr %0, ptr %2, align 8
  %4 = load ptr, ptr %2, align 8
  %5 = call i64 @_ZN15ciInstanceKlass5flagsEv(ptr noundef nonnull align 8 dereferenceable(144) %4)
  store i64 %5, ptr %3, align 4
  %6 = call noundef zeroext i1 @_ZNK7ciFlags8is_finalEv(ptr noundef nonnull align 4 dereferenceable(6) %3)
  ret i1 %6
}

; Function Attrs: mustprogress nounwind uwtable
define linkonce_odr hidden noundef zeroext i1 @_ZN15ciInstanceKlass9is_sharedEv(ptr noundef nonnull align 8 dereferenceable(144) %0) #1 comdat align 2 {
  %2 = alloca ptr, align 8
  store ptr %0, ptr %2, align 8
  %3 = load ptr, ptr %2, align 8
  %4 = getelementptr inbounds %class.ciInstanceKlass, ptr %3, i32 0, i32 4
  %5 = load i8, ptr %4, align 1
  %6 = trunc i8 %5 to i1
  ret i1 %6
}

; Function Attrs: mustprogress nounwind uwtable
define hidden noundef zeroext i1 @_ZN15ciInstanceKlass12is_leaf_typeEv(ptr noundef nonnull align 8 dereferenceable(144) %0) unnamed_addr #1 align 2 {
  %2 = alloca i1, align 1
  %3 = alloca ptr, align 8
  store ptr %0, ptr %3, align 8
  %4 = load ptr, ptr %3, align 8
  %5 = call noundef zeroext i1 @_ZN15ciInstanceKlass9is_sharedEv(ptr noundef nonnull align 8 dereferenceable(144) %4)
  br i1 %5, label %6, label %8

6:                                                ; preds = %1
  %7 = call noundef zeroext i1 @_ZN15ciInstanceKlass8is_finalEv(ptr noundef nonnull align 8 dereferenceable(144) %4)
  store i1 %7, ptr %2, align 1
  br label %15

8:                                                ; preds = %1
  %9 = call noundef zeroext i1 @_ZN15ciInstanceKlass12has_subklassEv(ptr noundef nonnull align 8 dereferenceable(144) %4)
  br i1 %9, label %13, label %10

10:                                               ; preds = %8
  %11 = call noundef i32 @_ZN15ciInstanceKlass16nof_implementorsEv(ptr noundef nonnull align 8 dereferenceable(144) %4)
  %12 = icmp eq i32 %11, 0
  br label %13

13:                                               ; preds = %10, %8
  %14 = phi i1 [ false, %8 ], [ %12, %10 ]
  store i1 %14, ptr %2, align 1
  br label %15

15:                                               ; preds = %13, %6
  %16 = load i1, ptr %2, align 1
  ret i1 %16
}