; Function Attrs: mustprogress nounwind uwtable
define hidden noundef zeroext i1 @_ZN15ciInstanceKlass12is_leaf_typeEv(ptr noundef nonnull align 8 dereferenceable(144) %0) unnamed_addr #0 align 2 {
  %2 = getelementptr inbounds i8, ptr %0, i64 65
  %3 = load i8, ptr %2, align 1
  %4 = trunc i8 %3 to i1
  br i1 %4, label %5, label %9

5:                                                ; preds = %1
  %6 = getelementptr inbounds i8, ptr %0, i64 80
  %.sroa.0.0.copyload.i.i = load i64, ptr %6, align 8
  %7 = and i64 %.sroa.0.0.copyload.i.i, 16
  %8 = icmp ne i64 %7, 0
  br label %_ZN15ciInstanceKlass12has_subklassEv.exit.thread

9:                                                ; preds = %1
  %10 = getelementptr inbounds i8, ptr %0, i64 68
  %11 = load i32, ptr %10, align 4
  %12 = icmp eq i32 %11, 2
  br i1 %12, label %_ZN15ciInstanceKlass12has_subklassEv.exit.thread, label %13

13:                                               ; preds = %9
  %14 = getelementptr inbounds i8, ptr %0, i64 80
  %.sroa.0.0.copyload.i.i2 = load i64, ptr %14, align 8
  %15 = and i64 %.sroa.0.0.copyload.i.i2, 16
  %.not.i = icmp eq i64 %15, 0
  br i1 %.not.i, label %_ZN15ciInstanceKlass12has_subklassEv.exit, label %_ZN15ciInstanceKlass12has_subklassEv.exit.thread6

_ZN15ciInstanceKlass12has_subklassEv.exit:        ; preds = %13
  %16 = tail call noundef zeroext i1 @_ZN15ciInstanceKlass27compute_shared_has_subklassEv(ptr noundef nonnull align 8 dereferenceable(144) %0)
  br i1 %16, label %_ZN15ciInstanceKlass12has_subklassEv.exit.thread, label %_ZN15ciInstanceKlass12has_subklassEv.exit.thread6

_ZN15ciInstanceKlass12has_subklassEv.exit.thread6: ; preds = %13, %_ZN15ciInstanceKlass12has_subklassEv.exit
  %17 = tail call noundef ptr @_ZN15ciInstanceKlass11implementorEv(ptr noundef nonnull align 8 dereferenceable(144) %0)
  %18 = icmp eq ptr %17, null
  br label %_ZN15ciInstanceKlass12has_subklassEv.exit.thread

_ZN15ciInstanceKlass12has_subklassEv.exit.thread: ; preds = %9, %_ZN15ciInstanceKlass12has_subklassEv.exit, %_ZN15ciInstanceKlass12has_subklassEv.exit.thread6, %5
  %.0 = phi i1 [ %8, %5 ], [ false, %_ZN15ciInstanceKlass12has_subklassEv.exit ], [ %18, %_ZN15ciInstanceKlass12has_subklassEv.exit.thread6 ], [ false, %9 ]
  ret i1 %.0
}